target datalayout = "e-m:e-p270:32:32-p271:32:32-p272:64:64-i64:64-i128:128-f80:128-n8:16:32:64-S128"
target triple = "x86_64-pc-linux-gnu"

@pg_dir_create_mode = external global i32, align 4
@.str.161 = private unnamed_addr constant [36 x i8] c"could not create directory \22%s\22: %m\00", align 1
@.str.162 = private unnamed_addr constant [39 x i8] c"directory \22%s\22 exists but is not empty\00", align 1
@.str.163 = private unnamed_addr constant [36 x i8] c"could not access directory \22%s\22: %m\00", align 1

; Function Attrs: nounwind uwtable
define internal void @verify_dir_is_empty_or_create(ptr noundef %0, ptr noundef %1, ptr noundef %2) #0 {
  %4 = alloca ptr, align 8
  %5 = alloca ptr, align 8
  %6 = alloca ptr, align 8
  store ptr %0, ptr %4, align 8
  store ptr %1, ptr %5, align 8
  store ptr %2, ptr %6, align 8
  %7 = load ptr, ptr %4, align 8
  %8 = call i32 @pg_check_dir(ptr noundef %7)
  switch i32 %8, label %38 [
    i32 0, label %9
    i32 1, label %24
    i32 2, label %30
    i32 3, label %30
    i32 4, label %30
    i32 -1, label %34
  ]

9:                                                ; preds = %3
  %10 = load ptr, ptr %4, align 8
  %11 = load i32, ptr @pg_dir_create_mode, align 4
  %12 = call i32 @pg_mkdir_p(ptr noundef %10, i32 noundef %11)
  %13 = icmp eq i32 %12, -1
  br i1 %13, label %14, label %18

14:                                               ; preds = %9
  br label %15

15:                                               ; preds = %14
  %16 = load ptr, ptr %4, align 8
  call void (i32, i32, ptr, ...) @pg_log_generic(i32 noundef 4, i32 noundef 0, ptr noundef @.str.161, ptr noundef %16)
  call void @exit(i32 noundef 1) #14
  unreachable

17:                                               ; No predecessors!
  br label %18

18:                                               ; preds = %17, %9
  %19 = load ptr, ptr %5, align 8
  %20 = icmp ne ptr %19, null
  br i1 %20, label %21, label %23

21:                                               ; preds = %18
  %22 = load ptr, ptr %5, align 8
  store i8 1, ptr %22, align 1
  br label %23

23:                                               ; preds = %21, %18
  br label %38

24:                                               ; preds = %3
  %25 = load ptr, ptr %6, align 8
  %26 = icmp ne ptr %25, null
  br i1 %26, label %27, label %29

27:                                               ; preds = %24
  %28 = load ptr, ptr %6, align 8
  store i8 1, ptr %28, align 1
  br label %29

29:                                               ; preds = %27, %24
  br label %38

30:                                               ; preds = %3, %3, %3
  br label %31

31:                                               ; preds = %30
  %32 = load ptr, ptr %4, align 8
  call void (i32, i32, ptr, ...) @pg_log_generic(i32 noundef 4, i32 noundef 0, ptr noundef @.str.162, ptr noundef %32)
  call void @exit(i32 noundef 1) #14
  unreachable

33:                                               ; No predecessors!
  br label %34

34:                                               ; preds = %3, %33
  br label %35

35:                                               ; preds = %34
  %36 = load ptr, ptr %4, align 8
  call void (i32, i32, ptr, ...) @pg_log_generic(i32 noundef 4, i32 noundef 0, ptr noundef @.str.163, ptr noundef %36)
  call void @exit(i32 noundef 1) #14
  unreachable

37:                                               ; No predecessors!
  br label %38

38:                                               ; preds = %23, %29, %37, %3
  ret void
}