; Function Attrs: nounwind uwtable
define internal fastcc void @verify_dir_is_empty_or_create(ptr noundef %0, ptr noundef writeonly captures(address_is_null) %1, ptr noundef writeonly captures(address_is_null) %2) unnamed_addr #0 {
  %4 = tail call i32 @pg_check_dir(ptr noundef %0) #17
  switch i32 %4, label %14 [
    i32 0, label %5
    i32 1, label %11
    i32 2, label %12
    i32 3, label %12
    i32 4, label %12
    i32 -1, label %13
  ]

5:                                                ; preds = %3
  %6 = load i32, ptr @pg_dir_create_mode, align 4
  %7 = tail call i32 @pg_mkdir_p(ptr noundef %0, i32 noundef %6) #17
  %8 = icmp eq i32 %7, -1
  br i1 %8, label %9, label %10

9:                                                ; preds = %5
  tail call void (i32, i32, ptr, ...) @pg_log_generic(i32 noundef 4, i32 noundef 0, ptr noundef nonnull @.str.161, ptr noundef %0) #17
  tail call void @exit(i32 noundef 1) #20
  unreachable

10:                                               ; preds = %5
  %.not10 = icmp eq ptr %1, null
  br i1 %.not10, label %14, label %.sink.split

11:                                               ; preds = %3
  %.not = icmp eq ptr %2, null
  br i1 %.not, label %14, label %.sink.split

12:                                               ; preds = %3, %3, %3
  tail call void (i32, i32, ptr, ...) @pg_log_generic(i32 noundef 4, i32 noundef 0, ptr noundef nonnull @.str.162, ptr noundef %0) #17
  tail call void @exit(i32 noundef 1) #20
  unreachable

13:                                               ; preds = %3
  tail call void (i32, i32, ptr, ...) @pg_log_generic(i32 noundef 4, i32 noundef 0, ptr noundef nonnull @.str.163, ptr noundef %0) #17
  tail call void @exit(i32 noundef 1) #20
  unreachable

.sink.split:                                      ; preds = %11, %10
  %.sink = phi ptr [ %1, %10 ], [ %2, %11 ]
  store i8 1, ptr %.sink, align 1
  br label %14

14:                                               ; preds = %.sink.split, %11, %10, %3
  ret void
}